target datalayout = "e-m:e-p270:32:32-p271:32:32-p272:64:64-i64:64-i128:128-f80:128-n8:16:32:64-S128"
target triple = "x86_64-pc-linux-gnu"

%struct.AVFormatContext = type { ptr, ptr, ptr, ptr, ptr, i32, i32, ptr, i32, ptr, i32, ptr, ptr, i64, i64, i64, i32, i32, i32, i64, i64, ptr, i32, i32, ptr, i32, i32, i32, i32, ptr, i64, i32, i32, %struct.AVIOInterruptCB, i32, i32, i32, i32, i64, i32, i32, i32, i32, i32, i32, i32, i32, i32, i32, i32, i32, i64, i32, i32, i32, i32, i32, ptr, ptr, ptr, ptr, i32, ptr, ptr, ptr, ptr, i32, ptr, ptr, i64, ptr, ptr, ptr, i64 }
%struct.AVIOInterruptCB = type { ptr, ptr }
%struct.AVStream = type { ptr, i32, i32, ptr, ptr, %struct.AVRational, i64, i64, i64, i32, i32, %struct.AVRational, ptr, %struct.AVRational, %struct.AVPacket, i32, %struct.AVRational, i32 }
%struct.AVPacket = type { ptr, i64, i64, ptr, i32, i32, i32, ptr, i32, i64, i64, ptr, ptr, %struct.AVRational }
%struct.AVRational = type { i32, i32 }
%struct.AVCodecParameters = type { i32, i32, i32, ptr, i32, ptr, i32, i32, i64, i32, i32, i32, i32, i32, i32, %struct.AVRational, %struct.AVRational, i32, i32, i32, i32, i32, i32, i32, %struct.AVChannelLayout, i32, i32, i32, i32, i32, i32 }
%struct.AVChannelLayout = type { i32, i32, %union.anon, ptr }
%union.anon = type { i64 }

@.str.4 = private unnamed_addr constant [31 x i8] c"invalid number of channels %d\0A\00", align 1

; Function Attrs: nounwind uwtable
define internal i32 @wsaud_read_packet(ptr noundef %0, ptr noundef %1) #0 {
  %3 = alloca i32, align 4
  %4 = alloca ptr, align 8
  %5 = alloca ptr, align 8
  %6 = alloca ptr, align 8
  %7 = alloca [8 x i8], align 1
  %8 = alloca i32, align 4
  %9 = alloca i32, align 4
  %10 = alloca ptr, align 8
  %11 = alloca i32, align 4
  %12 = alloca i32, align 4
  store ptr %0, ptr %4, align 8, !tbaa !16
  store ptr %1, ptr %5, align 8, !tbaa !50
  call void @llvm.lifetime.start.p0(i64 8, ptr %6) #3
  %13 = load ptr, ptr %4, align 8, !tbaa !16
  %14 = getelementptr inbounds nuw %struct.AVFormatContext, ptr %13, i32 0, i32 4
  %15 = load ptr, ptr %14, align 8, !tbaa !18
  store ptr %15, ptr %6, align 8, !tbaa !33
  call void @llvm.lifetime.start.p0(i64 8, ptr %7) #3
  call void @llvm.lifetime.start.p0(i64 4, ptr %8) #3
  call void @llvm.lifetime.start.p0(i64 4, ptr %9) #3
  store i32 0, ptr %9, align 4, !tbaa !15
  call void @llvm.lifetime.start.p0(i64 8, ptr %10) #3
  %16 = load ptr, ptr %4, align 8, !tbaa !16
  %17 = getelementptr inbounds nuw %struct.AVFormatContext, ptr %16, i32 0, i32 7
  %18 = load ptr, ptr %17, align 8, !tbaa !52
  %19 = getelementptr inbounds ptr, ptr %18, i64 0
  %20 = load ptr, ptr %19, align 8, !tbaa !34
  store ptr %20, ptr %10, align 8, !tbaa !34
  %21 = load ptr, ptr %6, align 8, !tbaa !33
  %22 = getelementptr inbounds [8 x i8], ptr %7, i64 0, i64 0
  %23 = call i32 @avio_read(ptr noundef %21, ptr noundef %22, i32 noundef 8)
  %24 = icmp ne i32 %23, 8
  br i1 %24, label %25, label %26

25:                                               ; preds = %2
  store i32 -5, ptr %3, align 4
  store i32 1, ptr %11, align 4
  br label %135

26:                                               ; preds = %2
  %27 = getelementptr inbounds [8 x i8], ptr %7, i64 0, i64 4
  %28 = load i32, ptr %27, align 1, !tbaa !14
  %29 = icmp ne i32 %28, 57007
  br i1 %29, label %30, label %31

30:                                               ; preds = %26
  store i32 -1094995529, ptr %3, align 4
  store i32 1, ptr %11, align 4
  br label %135

31:                                               ; preds = %26
  %32 = getelementptr inbounds [8 x i8], ptr %7, i64 0, i64 0
  %33 = load i16, ptr %32, align 1, !tbaa !14
  %34 = zext i16 %33 to i32
  store i32 %34, ptr %8, align 4, !tbaa !15
  %35 = load ptr, ptr %10, align 8, !tbaa !34
  %36 = getelementptr inbounds nuw %struct.AVStream, ptr %35, i32 0, i32 3
  %37 = load ptr, ptr %36, align 8, !tbaa !36
  %38 = getelementptr inbounds nuw %struct.AVCodecParameters, ptr %37, i32 0, i32 1
  %39 = load i32, ptr %38, align 4, !tbaa !43
  %40 = icmp eq i32 %39, 86033
  br i1 %40, label %41, label %90

41:                                               ; preds = %31
  call void @llvm.lifetime.start.p0(i64 4, ptr %12) #3
  %42 = getelementptr inbounds [8 x i8], ptr %7, i64 0, i64 2
  %43 = load i16, ptr %42, align 1, !tbaa !14
  %44 = zext i16 %43 to i32
  store i32 %44, ptr %12, align 4, !tbaa !15
  %45 = load ptr, ptr %5, align 8, !tbaa !50
  %46 = load i32, ptr %8, align 4, !tbaa !15
  %47 = add i32 %46, 4
  %48 = call i32 @av_new_packet(ptr noundef %45, i32 noundef %47)
  store i32 %48, ptr %9, align 4, !tbaa !15
  %49 = icmp slt i32 %48, 0
  br i1 %49, label %50, label %52

50:                                               ; preds = %41
  %51 = load i32, ptr %9, align 4, !tbaa !15
  store i32 %51, ptr %3, align 4
  store i32 1, ptr %11, align 4
  br label %87

52:                                               ; preds = %41
  %53 = load ptr, ptr %6, align 8, !tbaa !33
  %54 = load ptr, ptr %5, align 8, !tbaa !50
  %55 = getelementptr inbounds nuw %struct.AVPacket, ptr %54, i32 0, i32 3
  %56 = load ptr, ptr %55, align 8, !tbaa !53
  %57 = getelementptr inbounds i8, ptr %56, i64 4
  %58 = load i32, ptr %8, align 4, !tbaa !15
  %59 = call i32 @avio_read(ptr noundef %53, ptr noundef %57, i32 noundef %58)
  store i32 %59, ptr %9, align 4, !tbaa !15
  %60 = load i32, ptr %8, align 4, !tbaa !15
  %61 = icmp ne i32 %59, %60
  br i1 %61, label %62, label %70

62:                                               ; preds = %52
  %63 = load i32, ptr %9, align 4, !tbaa !15
  %64 = icmp slt i32 %63, 0
  br i1 %64, label %65, label %67

65:                                               ; preds = %62
  %66 = load i32, ptr %9, align 4, !tbaa !15
  br label %68

67:                                               ; preds = %62
  br label %68

68:                                               ; preds = %67, %65
  %69 = phi i32 [ %66, %65 ], [ -5, %67 ]
  store i32 %69, ptr %3, align 4
  store i32 1, ptr %11, align 4
  br label %87

70:                                               ; preds = %52
  %71 = load i32, ptr %12, align 4, !tbaa !15
  %72 = trunc i32 %71 to i16
  %73 = load ptr, ptr %5, align 8, !tbaa !50
  %74 = getelementptr inbounds nuw %struct.AVPacket, ptr %73, i32 0, i32 3
  %75 = load ptr, ptr %74, align 8, !tbaa !53
  %76 = getelementptr inbounds i8, ptr %75, i64 0
  store i16 %72, ptr %76, align 1, !tbaa !14
  %77 = load i32, ptr %8, align 4, !tbaa !15
  %78 = trunc i32 %77 to i16
  %79 = load ptr, ptr %5, align 8, !tbaa !50
  %80 = getelementptr inbounds nuw %struct.AVPacket, ptr %79, i32 0, i32 3
  %81 = load ptr, ptr %80, align 8, !tbaa !53
  %82 = getelementptr inbounds i8, ptr %81, i64 2
  store i16 %78, ptr %82, align 1, !tbaa !14
  %83 = load i32, ptr %12, align 4, !tbaa !15
  %84 = sext i32 %83 to i64
  %85 = load ptr, ptr %5, align 8, !tbaa !50
  %86 = getelementptr inbounds nuw %struct.AVPacket, ptr %85, i32 0, i32 9
  store i64 %84, ptr %86, align 8, !tbaa !54
  store i32 0, ptr %11, align 4
  br label %87

87:                                               ; preds = %70, %68, %50
  call void @llvm.lifetime.end.p0(i64 4, ptr %12) #3
  %88 = load i32, ptr %11, align 4
  switch i32 %88, label %135 [
    i32 0, label %89
  ]

89:                                               ; preds = %87
  br label %128

90:                                               ; preds = %31
  %91 = load ptr, ptr %6, align 8, !tbaa !33
  %92 = load ptr, ptr %5, align 8, !tbaa !50
  %93 = load i32, ptr %8, align 4, !tbaa !15
  %94 = call i32 @av_get_packet(ptr noundef %91, ptr noundef %92, i32 noundef %93)
  store i32 %94, ptr %9, align 4, !tbaa !15
  %95 = load i32, ptr %9, align 4, !tbaa !15
  %96 = load i32, ptr %8, align 4, !tbaa !15
  %97 = icmp ne i32 %95, %96
  br i1 %97, label %98, label %99

98:                                               ; preds = %90
  store i32 -5, ptr %3, align 4
  store i32 1, ptr %11, align 4
  br label %135

99:                                               ; preds = %90
  %100 = load ptr, ptr %10, align 8, !tbaa !34
  %101 = getelementptr inbounds nuw %struct.AVStream, ptr %100, i32 0, i32 3
  %102 = load ptr, ptr %101, align 8, !tbaa !36
  %103 = getelementptr inbounds nuw %struct.AVCodecParameters, ptr %102, i32 0, i32 24
  %104 = getelementptr inbounds nuw %struct.AVChannelLayout, ptr %103, i32 0, i32 1
  %105 = load i32, ptr %104, align 4, !tbaa !55
  %106 = icmp sle i32 %105, 0
  br i1 %106, label %107, label %115

107:                                              ; preds = %99
  %108 = load ptr, ptr %4, align 8, !tbaa !16
  %109 = load ptr, ptr %10, align 8, !tbaa !34
  %110 = getelementptr inbounds nuw %struct.AVStream, ptr %109, i32 0, i32 3
  %111 = load ptr, ptr %110, align 8, !tbaa !36
  %112 = getelementptr inbounds nuw %struct.AVCodecParameters, ptr %111, i32 0, i32 24
  %113 = getelementptr inbounds nuw %struct.AVChannelLayout, ptr %112, i32 0, i32 1
  %114 = load i32, ptr %113, align 4, !tbaa !55
  call void (ptr, i32, ptr, ...) @av_log(ptr noundef %108, i32 noundef 16, ptr noundef @.str.4, i32 noundef %114)
  store i32 -1094995529, ptr %3, align 4
  store i32 1, ptr %11, align 4
  br label %135

115:                                              ; preds = %99
  %116 = load i32, ptr %8, align 4, !tbaa !15
  %117 = mul i32 %116, 2
  %118 = load ptr, ptr %10, align 8, !tbaa !34
  %119 = getelementptr inbounds nuw %struct.AVStream, ptr %118, i32 0, i32 3
  %120 = load ptr, ptr %119, align 8, !tbaa !36
  %121 = getelementptr inbounds nuw %struct.AVCodecParameters, ptr %120, i32 0, i32 24
  %122 = getelementptr inbounds nuw %struct.AVChannelLayout, ptr %121, i32 0, i32 1
  %123 = load i32, ptr %122, align 4, !tbaa !55
  %124 = udiv i32 %117, %123
  %125 = zext i32 %124 to i64
  %126 = load ptr, ptr %5, align 8, !tbaa !50
  %127 = getelementptr inbounds nuw %struct.AVPacket, ptr %126, i32 0, i32 9
  store i64 %125, ptr %127, align 8, !tbaa !54
  br label %128

128:                                              ; preds = %115, %89
  %129 = load ptr, ptr %10, align 8, !tbaa !34
  %130 = getelementptr inbounds nuw %struct.AVStream, ptr %129, i32 0, i32 1
  %131 = load i32, ptr %130, align 8, !tbaa !56
  %132 = load ptr, ptr %5, align 8, !tbaa !50
  %133 = getelementptr inbounds nuw %struct.AVPacket, ptr %132, i32 0, i32 5
  store i32 %131, ptr %133, align 4, !tbaa !57
  %134 = load i32, ptr %9, align 4, !tbaa !15
  store i32 %134, ptr %3, align 4
  store i32 1, ptr %11, align 4
  br label %135

135:                                              ; preds = %128, %107, %98, %87, %30, %25
  call void @llvm.lifetime.end.p0(i64 8, ptr %10) #3
  call void @llvm.lifetime.end.p0(i64 4, ptr %9) #3
  call void @llvm.lifetime.end.p0(i64 4, ptr %8) #3
  call void @llvm.lifetime.end.p0(i64 8, ptr %7) #3
  call void @llvm.lifetime.end.p0(i64 8, ptr %6) #3
  %136 = load i32, ptr %3, align 4
  ret i32 %136
}