; Function Attrs: nounwind uwtable
define internal i32 @wsaud_read_packet(ptr noundef %0, ptr noundef %1) #1 {
  %3 = alloca [8 x i8], align 2
  %4 = getelementptr inbounds nuw i8, ptr %0, i64 32
  %5 = load ptr, ptr %4, align 8, !tbaa !13
  call void @llvm.lifetime.start.p0(i64 8, ptr nonnull %3) #4
  %6 = getelementptr inbounds nuw i8, ptr %0, i64 48
  %7 = load ptr, ptr %6, align 8, !tbaa !42
  %8 = load ptr, ptr %7, align 8, !tbaa !43
  %9 = call i32 @avio_read(ptr noundef %5, ptr noundef nonnull %3, i32 noundef 8) #4
  %.not = icmp eq i32 %9, 8
  br i1 %.not, label %10, label %.thread

10:                                               ; preds = %2
  %11 = getelementptr inbounds nuw i8, ptr %3, i64 4
  %12 = load i32, ptr %11, align 2, !tbaa !12
  %.not44 = icmp eq i32 %12, 57007
  br i1 %.not44, label %13, label %.thread

13:                                               ; preds = %10
  %14 = load i16, ptr %3, align 2, !tbaa !12
  %15 = zext i16 %14 to i32
  %16 = getelementptr inbounds nuw i8, ptr %8, i64 16
  %17 = load ptr, ptr %16, align 8, !tbaa !28
  %18 = getelementptr inbounds nuw i8, ptr %17, i64 4
  %19 = load i32, ptr %18, align 4, !tbaa !35
  %20 = icmp eq i32 %19, 86033
  br i1 %20, label %21, label %40

21:                                               ; preds = %13
  %22 = getelementptr inbounds nuw i8, ptr %3, i64 2
  %23 = load i16, ptr %22, align 2, !tbaa !12
  %24 = add nuw nsw i32 %15, 4
  %25 = call i32 @av_new_packet(ptr noundef %1, i32 noundef %24) #4
  %26 = icmp slt i32 %25, 0
  br i1 %26, label %.thread, label %27

27:                                               ; preds = %21
  %28 = getelementptr inbounds nuw i8, ptr %1, i64 24
  %29 = load ptr, ptr %28, align 8, !tbaa !45
  %30 = getelementptr inbounds nuw i8, ptr %29, i64 4
  %31 = call i32 @avio_read(ptr noundef %5, ptr noundef nonnull %30, i32 noundef %15) #4
  %.not46 = icmp eq i32 %31, %15
  br i1 %.not46, label %35, label %32

32:                                               ; preds = %27
  %33 = icmp slt i32 %31, 0
  %34 = select i1 %33, i32 %31, i32 -5
  br label %.thread

35:                                               ; preds = %27
  %36 = load ptr, ptr %28, align 8, !tbaa !45
  store i16 %23, ptr %36, align 1, !tbaa !12
  %37 = load ptr, ptr %28, align 8, !tbaa !45
  %38 = getelementptr inbounds nuw i8, ptr %37, i64 2
  store i16 %14, ptr %38, align 1, !tbaa !12
  %39 = zext i16 %23 to i64
  br label %52

40:                                               ; preds = %13
  %41 = call i32 @av_get_packet(ptr noundef %5, ptr noundef %1, i32 noundef %15) #4
  %.not45 = icmp eq i32 %41, %15
  br i1 %.not45, label %42, label %.thread

42:                                               ; preds = %40
  %43 = load ptr, ptr %16, align 8, !tbaa !28
  %44 = getelementptr inbounds nuw i8, ptr %43, i64 132
  %45 = load i32, ptr %44, align 4, !tbaa !46
  %46 = icmp slt i32 %45, 1
  br i1 %46, label %47, label %48

47:                                               ; preds = %42
  call void (ptr, i32, ptr, ...) @av_log(ptr noundef nonnull %0, i32 noundef 16, ptr noundef nonnull @.str.4, i32 noundef %45) #4
  br label %.thread

48:                                               ; preds = %42
  %49 = shl nuw nsw i32 %15, 1
  %50 = udiv i32 %49, %45
  %51 = zext nneg i32 %50 to i64
  br label %52

52:                                               ; preds = %35, %48
  %.sink = phi i64 [ %39, %35 ], [ %51, %48 ]
  %53 = getelementptr inbounds nuw i8, ptr %1, i64 64
  store i64 %.sink, ptr %53, align 8, !tbaa !47
  %54 = getelementptr inbounds nuw i8, ptr %8, i64 8
  %55 = load i32, ptr %54, align 8, !tbaa !48
  %56 = getelementptr inbounds nuw i8, ptr %1, i64 36
  store i32 %55, ptr %56, align 4, !tbaa !49
  br label %.thread

.thread:                                          ; preds = %21, %32, %40, %10, %2, %52, %47
  %.0 = phi i32 [ %15, %52 ], [ -1094995529, %47 ], [ -5, %2 ], [ -1094995529, %10 ], [ -5, %40 ], [ %25, %21 ], [ %34, %32 ]
  call void @llvm.lifetime.end.p0(i64 8, ptr nonnull %3) #4
  ret i32 %.0
}